target datalayout = "e-m:e-p270:32:32-p271:32:32-p272:64:64-i64:64-i128:128-f80:128-n8:16:32:64-S128"
target triple = "x86_64-pc-linux-gnu"

%struct.bio_st = type { ptr, ptr, ptr, i32, i32, i32, i32, i32, i32, ptr, ptr, i64, i64 }

; Function Attrs: mustprogress uwtable
define internal noundef i64 @_ZN12_GLOBAL__N_112PacketedCtrlEP6bio_stilPv(ptr noundef %0, i32 noundef %1, i64 noundef %2, ptr noundef %3) #0 {
  %5 = alloca i64, align 8
  %6 = alloca ptr, align 8
  %7 = alloca i32, align 4
  %8 = alloca i64, align 8
  %9 = alloca ptr, align 8
  %10 = alloca i32, align 4
  store ptr %0, ptr %6, align 8, !tbaa !20
  store i32 %1, ptr %7, align 4, !tbaa !26
  store i64 %2, ptr %8, align 8, !tbaa !29
  store ptr %3, ptr %9, align 8, !tbaa !35
  %11 = load ptr, ptr %6, align 8, !tbaa !20
  %12 = getelementptr inbounds nuw %struct.bio_st, ptr %11, i32 0, i32 10
  %13 = load ptr, ptr %12, align 8, !tbaa !27
  %14 = icmp eq ptr %13, null
  br i1 %14, label %15, label %16

15:                                               ; preds = %4
  store i64 0, ptr %5, align 8
  br label %29

16:                                               ; preds = %4
  %17 = load ptr, ptr %6, align 8, !tbaa !20
  call void @BIO_clear_retry_flags(ptr noundef %17)
  call void @llvm.lifetime.start.p0(i64 4, ptr %10) #11
  %18 = load ptr, ptr %6, align 8, !tbaa !20
  %19 = getelementptr inbounds nuw %struct.bio_st, ptr %18, i32 0, i32 10
  %20 = load ptr, ptr %19, align 8, !tbaa !27
  %21 = load i32, ptr %7, align 4, !tbaa !26
  %22 = load i64, ptr %8, align 8, !tbaa !29
  %23 = load ptr, ptr %9, align 8, !tbaa !35
  %24 = call i64 @BIO_ctrl(ptr noundef %20, i32 noundef %21, i64 noundef %22, ptr noundef %23)
  %25 = trunc i64 %24 to i32
  store i32 %25, ptr %10, align 4, !tbaa !26
  %26 = load ptr, ptr %6, align 8, !tbaa !20
  call void @BIO_copy_next_retry(ptr noundef %26)
  %27 = load i32, ptr %10, align 4, !tbaa !26
  %28 = sext i32 %27 to i64
  store i64 %28, ptr %5, align 8
  call void @llvm.lifetime.end.p0(i64 4, ptr %10) #11
  br label %29

29:                                               ; preds = %16, %15
  %30 = load i64, ptr %5, align 8
  ret i64 %30
}