; Function Attrs: mustprogress uwtable
define internal noundef range(i64 -2147483648, 2147483648) i64 @_ZN12_GLOBAL__N_112PacketedCtrlEP6bio_stilPv(ptr noundef %0, i32 noundef %1, i64 noundef %2, ptr noundef %3) #0 {
  %5 = getelementptr inbounds nuw i8, ptr %0, i64 56
  %6 = load ptr, ptr %5, align 8, !tbaa !17
  %7 = icmp eq ptr %6, null
  br i1 %7, label %12, label %8

8:                                                ; preds = %4
  tail call void @BIO_clear_retry_flags(ptr noundef nonnull %0)
  %9 = load ptr, ptr %5, align 8, !tbaa !17
  %10 = tail call i64 @BIO_ctrl(ptr noundef %9, i32 noundef %1, i64 noundef %2, ptr noundef %3)
  tail call void @BIO_copy_next_retry(ptr noundef nonnull %0)
  %sext = shl i64 %10, 32
  %11 = ashr exact i64 %sext, 32
  br label %12

12:                                               ; preds = %4, %8
  %.0 = phi i64 [ %11, %8 ], [ 0, %4 ]
  ret i64 %.0
}